; Function Attrs: mustprogress uwtable
define dso_local void @_ZN4Luau7CodeGen3A6418AssemblyBuilderA643cmpENS1_11RegisterA64Et(ptr noundef nonnull align 8 dereferenceable(176) %0, i8 %1, i16 noundef zeroext %2) local_unnamed_addr #0 align 2 {
  %4 = and i8 %1, 7
  %5 = icmp eq i8 %4, 2
  %.sroa.02.0.copyload = select i1 %5, i8 -6, i8 -7
  %6 = zext i16 %2 to i32
  %7 = getelementptr inbounds nuw i8, ptr %0, i64 80
  %8 = load i8, ptr %7, align 8, !tbaa !14, !range !46, !noundef !47
  %9 = trunc nuw i8 %8 to i1
  br i1 %9, label %10, label %11

10:                                               ; preds = %3
  tail call void @_ZN4Luau7CodeGen3A6418AssemblyBuilderA643logEPKcNS1_11RegisterA64ES5_i(ptr noundef nonnull align 8 dereferenceable(176) %0, ptr noundef nonnull @.str.7, i8 %.sroa.02.0.copyload, i8 %1, i32 noundef %6)
  br label %11

11:                                               ; preds = %10, %3
  %12 = and i8 %.sroa.02.0.copyload, 3
  %.not.i = icmp eq i8 %12, 1
  %13 = lshr i8 %1, 3
  %14 = zext nneg i8 %13 to i32
  %15 = shl nuw nsw i32 %14, 5
  %16 = shl nuw nsw i32 %6, 10
  %17 = or disjoint i32 %15, %16
  %18 = or disjoint i32 %17, 31
  %19 = select i1 %.not.i, i32 1895825408, i32 -251658240
  %20 = or i32 %19, %18
  %21 = getelementptr inbounds nuw i8, ptr %0, i64 160
  %22 = load ptr, ptr %21, align 8, !tbaa !39
  %23 = getelementptr inbounds nuw i8, ptr %22, i64 4
  store ptr %23, ptr %21, align 8, !tbaa !39
  store i32 %20, ptr %22, align 4, !tbaa !48
  %24 = getelementptr inbounds nuw i8, ptr %0, i64 168
  %25 = load ptr, ptr %24, align 8, !tbaa !40
  %26 = icmp eq ptr %25, %23
  br i1 %26, label %27, label %_ZN4Luau7CodeGen3A6418AssemblyBuilderA648placeI12EPKcNS1_11RegisterA64ES5_ih.exit

27:                                               ; preds = %11
  tail call void @_ZN4Luau7CodeGen3A6418AssemblyBuilderA646extendEv(ptr noundef nonnull align 8 dereferenceable(176) %0)
  br label %_ZN4Luau7CodeGen3A6418AssemblyBuilderA648placeI12EPKcNS1_11RegisterA64ES5_ih.exit

_ZN4Luau7CodeGen3A6418AssemblyBuilderA648placeI12EPKcNS1_11RegisterA64ES5_ih.exit: ; preds = %11, %27
  ret void
}